; Function Attrs: mustprogress nofree norecurse nosync nounwind willreturn memory(argmem: readwrite) uwtable
define internal void @hor_down_4x4_c(ptr noundef writeonly captures(none) initializes((0, 8)) %0, i64 noundef %1, ptr noundef readonly captures(none) %2, ptr noundef readonly captures(none) %3) #1 {
  %5 = getelementptr inbounds nuw i8, ptr %2, i64 6
  %6 = load i16, ptr %5, align 2, !tbaa !9
  %7 = zext i16 %6 to i32
  %8 = getelementptr inbounds nuw i8, ptr %2, i64 4
  %9 = load i16, ptr %8, align 2, !tbaa !9
  %10 = zext i16 %9 to i32
  %11 = getelementptr inbounds nuw i8, ptr %2, i64 2
  %12 = load i16, ptr %11, align 2, !tbaa !9
  %13 = zext i16 %12 to i32
  %14 = load i16, ptr %2, align 2, !tbaa !9
  %15 = zext i16 %14 to i32
  %16 = getelementptr inbounds i8, ptr %3, i64 -2
  %17 = load i16, ptr %16, align 2, !tbaa !9
  %18 = zext i16 %17 to i32
  %19 = load i16, ptr %3, align 2, !tbaa !9
  %20 = zext i16 %19 to i32
  %21 = getelementptr inbounds nuw i8, ptr %3, i64 2
  %22 = load i16, ptr %21, align 2, !tbaa !9
  %23 = zext i16 %22 to i32
  %24 = getelementptr inbounds nuw i8, ptr %3, i64 4
  %25 = load i16, ptr %24, align 2, !tbaa !9
  %26 = zext i16 %25 to i32
  %27 = lshr i64 %1, 1
  %28 = shl nuw nsw i32 %20, 1
  %29 = add nuw nsw i32 %18, 2
  %30 = add nuw nsw i32 %29, %28
  %31 = add nuw nsw i32 %30, %23
  %32 = lshr i32 %31, 2
  %33 = trunc nuw i32 %32 to i16
  %34 = getelementptr inbounds nuw i8, ptr %0, i64 4
  store i16 %33, ptr %34, align 2, !tbaa !9
  %35 = shl nuw nsw i32 %23, 1
  %36 = add nuw nsw i32 %20, 2
  %37 = add nuw nsw i32 %36, %35
  %38 = add nuw nsw i32 %37, %26
  %39 = lshr i32 %38, 2
  %40 = trunc nuw i32 %39 to i16
  %41 = getelementptr inbounds nuw i8, ptr %0, i64 6
  store i16 %40, ptr %41, align 2, !tbaa !9
  %42 = add nuw nsw i32 %7, 1
  %43 = add nuw nsw i32 %42, %18
  %44 = lshr i32 %43, 1
  %45 = trunc nuw i32 %44 to i16
  %46 = getelementptr inbounds nuw i16, ptr %0, i64 %27
  %47 = getelementptr inbounds nuw i8, ptr %46, i64 4
  store i16 %45, ptr %47, align 2, !tbaa !9
  store i16 %45, ptr %0, align 2, !tbaa !9
  %48 = shl nuw nsw i32 %18, 1
  %49 = add nuw nsw i32 %7, 2
  %50 = add nuw nsw i32 %49, %20
  %51 = add nuw nsw i32 %50, %48
  %52 = lshr i32 %51, 2
  %53 = trunc nuw i32 %52 to i16
  %54 = getelementptr inbounds nuw i8, ptr %46, i64 6
  store i16 %53, ptr %54, align 2, !tbaa !9
  %55 = getelementptr inbounds nuw i8, ptr %0, i64 2
  store i16 %53, ptr %55, align 2, !tbaa !9
  %56 = add nuw nsw i32 %42, %10
  %57 = lshr i32 %56, 1
  %58 = trunc nuw i32 %57 to i16
  %59 = and i64 %1, -2
  %60 = getelementptr inbounds nuw i16, ptr %0, i64 %59
  %61 = getelementptr inbounds nuw i8, ptr %60, i64 4
  store i16 %58, ptr %61, align 2, !tbaa !9
  store i16 %58, ptr %46, align 2, !tbaa !9
  %62 = shl nuw nsw i32 %7, 1
  %63 = add nuw nsw i32 %10, 2
  %64 = add nuw nsw i32 %63, %62
  %65 = add nuw nsw i32 %64, %18
  %66 = lshr i32 %65, 2
  %67 = trunc nuw i32 %66 to i16
  %68 = getelementptr inbounds nuw i8, ptr %60, i64 6
  store i16 %67, ptr %68, align 2, !tbaa !9
  %69 = getelementptr inbounds nuw i8, ptr %46, i64 2
  store i16 %67, ptr %69, align 2, !tbaa !9
  %70 = add nuw nsw i32 %10, 1
  %71 = add nuw nsw i32 %70, %13
  %72 = lshr i32 %71, 1
  %73 = trunc nuw i32 %72 to i16
  %.idx = mul nuw nsw i64 %27, 6
  %74 = getelementptr inbounds nuw i8, ptr %0, i64 %.idx
  %75 = getelementptr inbounds nuw i8, ptr %74, i64 4
  store i16 %73, ptr %75, align 2, !tbaa !9
  store i16 %73, ptr %60, align 2, !tbaa !9
  %76 = shl nuw nsw i32 %10, 1
  %77 = add nuw nsw i32 %49, %76
  %78 = add nuw nsw i32 %77, %13
  %79 = lshr i32 %78, 2
  %80 = trunc nuw i32 %79 to i16
  %81 = getelementptr inbounds nuw i8, ptr %74, i64 6
  store i16 %80, ptr %81, align 2, !tbaa !9
  %82 = or i64 %1, 1
  %83 = getelementptr inbounds nuw i16, ptr %0, i64 %82
  store i16 %80, ptr %83, align 2, !tbaa !9
  %84 = add nuw nsw i32 %13, 1
  %85 = add nuw nsw i32 %84, %15
  %86 = lshr i32 %85, 1
  %87 = trunc nuw i32 %86 to i16
  store i16 %87, ptr %74, align 2, !tbaa !9
  %88 = shl nuw nsw i32 %13, 1
  %89 = add nuw nsw i32 %63, %88
  %90 = add nuw nsw i32 %89, %15
  %91 = lshr i32 %90, 2
  %92 = trunc nuw i32 %91 to i16
  %93 = getelementptr inbounds nuw i8, ptr %74, i64 2
  store i16 %92, ptr %93, align 2, !tbaa !9
  ret void
}